; Function Attrs: nounwind uwtable
define ptr @ossl_quic_wire_decode_transport_param_bytes(ptr noundef captures(none) %0, ptr noundef writeonly captures(address_is_null) %1, ptr noundef writeonly captures(none) %2) local_unnamed_addr #2 {
  %4 = getelementptr i8, ptr %0, i64 8
  %.val.i = load i64, ptr %4, align 8, !tbaa !52
  %5 = icmp eq i64 %.val.i, 0
  br i1 %5, label %PACKET_get_quic_vlint.exit.thread, label %6

6:                                                ; preds = %3
  %7 = load ptr, ptr %0, align 8, !tbaa !54
  %8 = load i8, ptr %7, align 1, !tbaa !55
  %9 = lshr i8 %8, 6
  %10 = zext nneg i8 %9 to i32
  %11 = shl nuw nsw i32 1, %10
  %12 = zext nneg i32 %11 to i64
  %13 = icmp ult i64 %.val.i, %12
  br i1 %13, label %PACKET_get_quic_vlint.exit.thread, label %14

14:                                               ; preds = %6
  %15 = tail call i64 @ossl_quic_vlint_decode_unchecked(ptr noundef nonnull %7) #12
  %16 = load ptr, ptr %0, align 8, !tbaa !54
  %17 = getelementptr inbounds nuw i8, ptr %16, i64 %12
  store ptr %17, ptr %0, align 8, !tbaa !54
  %18 = load i64, ptr %4, align 8, !tbaa !52
  %19 = sub i64 %18, %12
  store i64 %19, ptr %4, align 8, !tbaa !52
  %20 = icmp eq i64 %18, %12
  br i1 %20, label %PACKET_get_quic_vlint.exit.thread, label %21

21:                                               ; preds = %14
  %22 = load i8, ptr %17, align 1, !tbaa !55
  %23 = lshr i8 %22, 6
  %24 = zext nneg i8 %23 to i32
  %25 = shl nuw nsw i32 1, %24
  %26 = zext nneg i32 %25 to i64
  %27 = icmp ult i64 %19, %26
  br i1 %27, label %PACKET_get_quic_vlint.exit.thread, label %28

28:                                               ; preds = %21
  %29 = tail call i64 @ossl_quic_vlint_decode_unchecked(ptr noundef nonnull %17) #12
  %30 = load ptr, ptr %0, align 8, !tbaa !54
  %31 = getelementptr inbounds nuw i8, ptr %30, i64 %26
  store ptr %31, ptr %0, align 8, !tbaa !54
  %32 = load i64, ptr %4, align 8, !tbaa !52
  %33 = sub i64 %32, %26
  store i64 %33, ptr %4, align 8, !tbaa !52
  %34 = icmp ult i64 %33, %29
  br i1 %34, label %PACKET_get_quic_vlint.exit.thread, label %35

35:                                               ; preds = %28
  %36 = getelementptr inbounds nuw i8, ptr %31, i64 %29
  store ptr %36, ptr %0, align 8, !tbaa !54
  %37 = sub nuw i64 %33, %29
  store i64 %37, ptr %4, align 8, !tbaa !52
  store i64 %29, ptr %2, align 8, !tbaa !56
  %.not10 = icmp eq ptr %1, null
  br i1 %.not10, label %PACKET_get_quic_vlint.exit.thread, label %38

38:                                               ; preds = %35
  store i64 %15, ptr %1, align 8, !tbaa !56
  br label %PACKET_get_quic_vlint.exit.thread

PACKET_get_quic_vlint.exit.thread:                ; preds = %28, %21, %14, %6, %3, %35, %38
  %.0 = phi ptr [ %31, %38 ], [ %31, %35 ], [ null, %3 ], [ null, %6 ], [ null, %14 ], [ null, %21 ], [ null, %28 ]
  ret ptr %.0
}